target datalayout = "e-m:e-p270:32:32-p271:32:32-p272:64:64-i64:64-i128:128-f80:128-n8:16:32:64-S128"
target triple = "x86_64-pc-linux-gnu"

%class.symbol = type { ptr }
%class.decl = type { %class.ast, %class.symbol, ptr }
%class.ast = type { i32, i32, i32, i32 }
%class.parameter = type { %"class.std::variant" }
%"class.std::variant" = type { %"struct.std::__detail::__variant::_Variant_base.base", [7 x i8] }
%"struct.std::__detail::__variant::_Variant_base.base" = type { %"struct.std::__detail::__variant::_Move_assign_base.base" }
%"struct.std::__detail::__variant::_Move_assign_base.base" = type { %"struct.std::__detail::__variant::_Copy_assign_base.base" }
%"struct.std::__detail::__variant::_Copy_assign_base.base" = type { %"struct.std::__detail::__variant::_Move_ctor_base.base" }
%"struct.std::__detail::__variant::_Move_ctor_base.base" = type { %"struct.std::__detail::__variant::_Copy_ctor_base.base" }
%"struct.std::__detail::__variant::_Copy_ctor_base.base" = type { %"struct.std::__detail::__variant::_Variant_storage.base" }
%"struct.std::__detail::__variant::_Variant_storage.base" = type <{ %"union.std::__detail::__variant::_Variadic_union", i8 }>
%"union.std::__detail::__variant::_Variadic_union" = type { %"union.std::__detail::__variant::_Variadic_union.41" }
%"union.std::__detail::__variant::_Variadic_union.41" = type { %"struct.std::__detail::__variant::_Uninitialized.42" }
%"struct.std::__detail::__variant::_Uninitialized.42" = type { ptr }
%"class.std::exception" = type { ptr }
%class.decl_info = type <{ i32, i32, %class.vector.75, i8, [7 x i8] }>
%class.vector.75 = type { ptr }
%"struct.std::__detail::__variant::_Variant_storage" = type <{ %"union.std::__detail::__variant::_Variadic_union", i8, [7 x i8] }>
%"class.std::bad_variant_access" = type { %"class.std::exception", ptr }

@.str.8 = private unnamed_addr constant [31 x i8] c"std::get: variant is valueless\00", align 1
@.str.9 = private unnamed_addr constant [34 x i8] c"std::get: wrong index for variant\00", align 1
@_ZTISt18bad_variant_access = linkonce_odr constant { ptr, ptr, ptr } { ptr getelementptr inbounds (ptr, ptr @_ZTVN10__cxxabiv120__si_class_type_infoE, i64 2), ptr @_ZTSSt18bad_variant_access, ptr @_ZTISt9exception }, comdat, align 8
@_ZTVSt18bad_variant_access = linkonce_odr unnamed_addr constant { [5 x ptr] } { [5 x ptr] [ptr null, ptr @_ZTISt18bad_variant_access, ptr @_ZNSt9exceptionD2Ev, ptr @_ZNSt18bad_variant_accessD0Ev, ptr @_ZNKSt18bad_variant_access4whatEv] }, comdat, align 8
@_ZTVSt9exception = available_externally unnamed_addr constant { [5 x ptr] } { [5 x ptr] [ptr null, ptr @_ZTISt9exception, ptr @_ZNSt9exceptionD1Ev, ptr @_ZNSt9exceptionD0Ev, ptr @_ZNKSt9exception4whatEv] }, align 8

; Function Attrs: mustprogress nounwind uwtable
define linkonce_odr hidden void @_ZNSt9exceptionC2Ev(ptr noundef nonnull align 8 dereferenceable(8) %0) unnamed_addr #5 comdat align 2 {
  %2 = alloca ptr, align 8
  store ptr %0, ptr %2, align 8, !tbaa !350
  %3 = load ptr, ptr %2, align 8
  store ptr getelementptr inbounds inrange(-16, 24) ({ [5 x ptr] }, ptr @_ZTVSt9exception, i32 0, i32 0, i32 2), ptr %3, align 8, !tbaa !201
  ret void
}

; Function Attrs: mustprogress nounwind uwtable
define linkonce_odr hidden noundef nonnull align 8 dereferenceable(8) ptr @_ZNKRSt8__detail9__variant14_UninitializedIP3astLb1EE6_M_getEv(ptr noundef nonnull align 8 dereferenceable(8) %0) #5 comdat align 2 {
  %2 = alloca ptr, align 8
  store ptr %0, ptr %2, align 8, !tbaa !358
  %3 = load ptr, ptr %2, align 8
  %4 = getelementptr inbounds nuw %"struct.std::__detail::__variant::_Uninitialized.42", ptr %3, i32 0, i32 0
  ret ptr %4
}

; Function Attrs: mustprogress nounwind uwtable
define linkonce_odr hidden void @_ZNSt18bad_variant_accessC2EPKc(ptr noundef nonnull align 8 dereferenceable(16) %0, ptr noundef %1) unnamed_addr #5 comdat align 2 {
  %3 = alloca ptr, align 8
  %4 = alloca ptr, align 8
  store ptr %0, ptr %3, align 8, !tbaa !345
  store ptr %1, ptr %4, align 8, !tbaa !92
  %5 = load ptr, ptr %3, align 8
  call void @_ZNSt9exceptionC2Ev(ptr noundef nonnull align 8 dereferenceable(8) %5) #3
  store ptr getelementptr inbounds inrange(-16, 24) ({ [5 x ptr] }, ptr @_ZTVSt18bad_variant_access, i32 0, i32 0, i32 2), ptr %5, align 8, !tbaa !201
  %6 = getelementptr inbounds nuw %"class.std::bad_variant_access", ptr %5, i32 0, i32 1
  %7 = load ptr, ptr %4, align 8, !tbaa !92
  store ptr %7, ptr %6, align 8, !tbaa !347
  ret void
}

; Function Attrs: mustprogress nounwind uwtable
define linkonce_odr hidden noundef nonnull align 8 dereferenceable(8) ptr @_ZNSt8__detail9__variant7__get_nILm1ERKNS0_15_Variadic_unionIJiP3ast6symbolP7zstringP8rationaldjEEEEEDcOT0_(ptr noundef nonnull align 8 dereferenceable(8) %0) #5 comdat {
  %2 = alloca ptr, align 8
  store ptr %0, ptr %2, align 8, !tbaa !354
  %3 = load ptr, ptr %2, align 8, !tbaa !354
  %4 = call noundef nonnull align 8 dereferenceable(8) ptr @_ZNKRSt8__detail9__variant14_UninitializedIP3astLb1EE6_M_getEv(ptr noundef nonnull align 8 dereferenceable(8) %3) #3
  ret ptr %4
}

; Function Attrs: inlinehint mustprogress uwtable
define linkonce_odr void @_ZSt26__throw_bad_variant_accessPKc(ptr noundef %0) #9 comdat {
  %2 = alloca ptr, align 8
  store ptr %0, ptr %2, align 8, !tbaa !92
  %3 = call ptr @__cxa_allocate_exception(i64 16) #3
  %4 = load ptr, ptr %2, align 8, !tbaa !92
  call void @_ZNSt18bad_variant_accessC2EPKc(ptr noundef nonnull align 8 dereferenceable(16) %3, ptr noundef %4) #3
  call void @__cxa_throw(ptr %3, ptr @_ZTISt18bad_variant_access, ptr @_ZNSt9exceptionD2Ev) #20
  unreachable
}

; Function Attrs: mustprogress nounwind uwtable
define linkonce_odr hidden noundef zeroext i1 @_ZNKSt8__detail9__variant16_Variant_storageILb1EJiP3ast6symbolP7zstringP8rationaldjEE8_M_validEv(ptr noundef nonnull align 8 dereferenceable(9) %0) #5 comdat align 2 {
  %2 = alloca ptr, align 8
  store ptr %0, ptr %2, align 8, !tbaa !352
  ret i1 true
}

; Function Attrs: mustprogress nounwind uwtable
define linkonce_odr hidden noundef nonnull align 8 dereferenceable(8) ptr @_ZNSt8__detail9__variant5__getILm1ERKSt7variantIJiP3ast6symbolP7zstringP8rationaldjEEEEDcOT0_(ptr noundef nonnull align 8 dereferenceable(9) %0) #5 comdat {
  %2 = alloca ptr, align 8
  store ptr %0, ptr %2, align 8, !tbaa !341
  %3 = load ptr, ptr %2, align 8, !tbaa !341
  %4 = getelementptr inbounds nuw %"struct.std::__detail::__variant::_Variant_storage", ptr %3, i32 0, i32 0
  %5 = call noundef nonnull align 8 dereferenceable(8) ptr @_ZNSt8__detail9__variant7__get_nILm1ERKNS0_15_Variadic_unionIJiP3ast6symbolP7zstringP8rationaldjEEEEEDcOT0_(ptr noundef nonnull align 8 dereferenceable(8) %4) #3
  ret ptr %5
}

; Function Attrs: inlinehint mustprogress uwtable
define linkonce_odr void @_ZSt26__throw_bad_variant_accessb(i1 noundef zeroext %0) #9 comdat {
  %2 = alloca i8, align 1
  %3 = zext i1 %0 to i8
  store i8 %3, ptr %2, align 1, !tbaa !94
  %4 = load i8, ptr %2, align 1, !tbaa !94, !range !96, !noundef !97
  %5 = trunc i8 %4 to i1
  %6 = call i1 @llvm.expect.i1(i1 %5, i1 false)
  br i1 %6, label %7, label %8

7:                                                ; preds = %1
  call void @_ZSt26__throw_bad_variant_accessPKc(ptr noundef @.str.8)
  br label %9

8:                                                ; preds = %1
  call void @_ZSt26__throw_bad_variant_accessPKc(ptr noundef @.str.9)
  br label %9

9:                                                ; preds = %8, %7
  ret void
}

; Function Attrs: mustprogress nounwind uwtable
define linkonce_odr hidden noundef zeroext i1 @_ZNKSt7variantIJiP3ast6symbolP7zstringP8rationaldjEE22valueless_by_exceptionEv(ptr noundef nonnull align 8 dereferenceable(9) %0) #5 comdat align 2 {
  %2 = alloca ptr, align 8
  store ptr %0, ptr %2, align 8, !tbaa !341
  %3 = load ptr, ptr %2, align 8
  %4 = call noundef zeroext i1 @_ZNKSt8__detail9__variant16_Variant_storageILb1EJiP3ast6symbolP7zstringP8rationaldjEE8_M_validEv(ptr noundef nonnull align 8 dereferenceable(9) %3) #3
  %5 = xor i1 %4, true
  ret i1 %5
}

; Function Attrs: mustprogress nounwind uwtable
define linkonce_odr hidden noundef i64 @_ZNKSt7variantIJiP3ast6symbolP7zstringP8rationaldjEE5indexEv(ptr noundef nonnull align 8 dereferenceable(9) %0) #5 comdat align 2 {
  %2 = alloca ptr, align 8
  store ptr %0, ptr %2, align 8, !tbaa !341
  %3 = load ptr, ptr %2, align 8
  %4 = getelementptr inbounds nuw %"struct.std::__detail::__variant::_Variant_storage", ptr %3, i32 0, i32 1
  %5 = load i8, ptr %4, align 8, !tbaa !343
  %6 = zext i8 %5 to i64
  ret i64 %6
}

; Function Attrs: mustprogress uwtable
define linkonce_odr hidden noundef nonnull align 8 dereferenceable(8) ptr @_ZSt3getILm1EJiP3ast6symbolP7zstringP8rationaldjEERKNSt19variant_alternativeIXT_ESt7variantIJDpT0_EEE4typeERKSB_(ptr noundef nonnull align 8 dereferenceable(9) %0) #4 comdat {
  %2 = alloca ptr, align 8
  store ptr %0, ptr %2, align 8, !tbaa !341
  %3 = load ptr, ptr %2, align 8, !tbaa !341
  %4 = call noundef i64 @_ZNKSt7variantIJiP3ast6symbolP7zstringP8rationaldjEE5indexEv(ptr noundef nonnull align 8 dereferenceable(9) %3) #3
  %5 = icmp ne i64 %4, 1
  br i1 %5, label %6, label %9

6:                                                ; preds = %1
  %7 = load ptr, ptr %2, align 8, !tbaa !341
  %8 = call noundef zeroext i1 @_ZNKSt7variantIJiP3ast6symbolP7zstringP8rationaldjEE22valueless_by_exceptionEv(ptr noundef nonnull align 8 dereferenceable(9) %7) #3
  call void @_ZSt26__throw_bad_variant_accessb(i1 noundef zeroext %8)
  br label %9

9:                                                ; preds = %6, %1
  %10 = load ptr, ptr %2, align 8, !tbaa !341
  %11 = call noundef nonnull align 8 dereferenceable(8) ptr @_ZNSt8__detail9__variant5__getILm1ERKSt7variantIJiP3ast6symbolP7zstringP8rationaldjEEEEDcOT0_(ptr noundef nonnull align 8 dereferenceable(9) %10) #3
  ret ptr %11
}

; Function Attrs: mustprogress nounwind uwtable
define linkonce_odr hidden noundef nonnull align 8 dereferenceable(16) ptr @_ZNK6vectorI9parameterLb1EjEixEj(ptr noundef nonnull align 8 dereferenceable(8) %0, i32 noundef %1) #5 comdat align 2 {
  %3 = alloca ptr, align 8
  %4 = alloca i32, align 4
  store ptr %0, ptr %3, align 8, !tbaa !337
  store i32 %1, ptr %4, align 4, !tbaa !54
  %5 = load ptr, ptr %3, align 8
  %6 = getelementptr inbounds nuw %class.vector.75, ptr %5, i32 0, i32 0
  %7 = load ptr, ptr %6, align 8, !tbaa !339
  %8 = load i32, ptr %4, align 4, !tbaa !54
  %9 = zext i32 %8 to i64
  %10 = getelementptr inbounds nuw %class.parameter, ptr %7, i64 %9
  ret ptr %10
}

; Function Attrs: mustprogress nounwind uwtable
define linkonce_odr hidden noundef i32 @_ZNK6vectorI9parameterLb1EjE4sizeEv(ptr noundef nonnull align 8 dereferenceable(8) %0) #5 comdat align 2 {
  %2 = alloca i32, align 4
  %3 = alloca ptr, align 8
  store ptr %0, ptr %3, align 8, !tbaa !337
  %4 = load ptr, ptr %3, align 8
  %5 = getelementptr inbounds nuw %class.vector.75, ptr %4, i32 0, i32 0
  %6 = load ptr, ptr %5, align 8, !tbaa !339
  %7 = icmp eq ptr %6, null
  br i1 %7, label %8, label %9

8:                                                ; preds = %1
  store i32 0, ptr %2, align 4
  br label %14

9:                                                ; preds = %1
  %10 = getelementptr inbounds nuw %class.vector.75, ptr %4, i32 0, i32 0
  %11 = load ptr, ptr %10, align 8, !tbaa !339
  %12 = getelementptr inbounds i32, ptr %11, i64 -1
  %13 = load i32, ptr %12, align 4, !tbaa !54
  store i32 %13, ptr %2, align 4
  br label %14

14:                                               ; preds = %9, %8
  %15 = load i32, ptr %2, align 4
  ret i32 %15
}

; Function Attrs: mustprogress uwtable
define linkonce_odr hidden noundef nonnull align 8 dereferenceable(8) ptr @_ZSt3getIP3astJiS1_6symbolP7zstringP8rationaldjEERKT_RKSt7variantIJDpT0_EE(ptr noundef nonnull align 8 dereferenceable(9) %0) #4 comdat {
  %2 = alloca ptr, align 8
  %3 = alloca i64, align 8
  store ptr %0, ptr %2, align 8, !tbaa !341
  call void @llvm.lifetime.start.p0(i64 8, ptr %3) #3
  store i64 1, ptr %3, align 8, !tbaa !328
  %4 = load ptr, ptr %2, align 8, !tbaa !341
  %5 = call noundef nonnull align 8 dereferenceable(8) ptr @_ZSt3getILm1EJiP3ast6symbolP7zstringP8rationaldjEERKNSt19variant_alternativeIXT_ESt7variantIJDpT0_EEE4typeERKSB_(ptr noundef nonnull align 8 dereferenceable(9) %4)
  call void @llvm.lifetime.end.p0(i64 8, ptr %3) #3
  ret ptr %5
}

; Function Attrs: mustprogress uwtable
define linkonce_odr hidden noundef nonnull align 8 dereferenceable(16) ptr @_ZNK9decl_info13get_parameterEj(ptr noundef nonnull align 8 dereferenceable(17) %0, i32 noundef %1) #4 comdat align 2 {
  %3 = alloca ptr, align 8
  %4 = alloca i32, align 4
  store ptr %0, ptr %3, align 8, !tbaa !336
  store i32 %1, ptr %4, align 4, !tbaa !54
  %5 = load ptr, ptr %3, align 8
  %6 = getelementptr inbounds nuw %class.decl_info, ptr %5, i32 0, i32 2
  %7 = load i32, ptr %4, align 4, !tbaa !54
  %8 = call noundef nonnull align 8 dereferenceable(16) ptr @_ZNK6vectorI9parameterLb1EjEixEj(ptr noundef nonnull align 8 dereferenceable(8) %6, i32 noundef %7)
  ret ptr %8
}

; Function Attrs: mustprogress uwtable
define linkonce_odr hidden noundef i32 @_ZNK9decl_info18get_num_parametersEv(ptr noundef nonnull align 8 dereferenceable(17) %0) #4 comdat align 2 {
  %2 = alloca ptr, align 8
  store ptr %0, ptr %2, align 8, !tbaa !336
  %3 = load ptr, ptr %2, align 8
  %4 = getelementptr inbounds nuw %class.decl_info, ptr %3, i32 0, i32 2
  %5 = call noundef i32 @_ZNK6vectorI9parameterLb1EjE4sizeEv(ptr noundef nonnull align 8 dereferenceable(8) %4)
  ret i32 %5
}

; Function Attrs: inlinehint mustprogress nounwind uwtable
define linkonce_odr hidden noundef ptr @_Z7to_sortP3ast(ptr noundef %0) #7 comdat {
  %2 = alloca ptr, align 8
  store ptr %0, ptr %2, align 8, !tbaa !69
  %3 = load ptr, ptr %2, align 8, !tbaa !69
  ret ptr %3
}

; Function Attrs: mustprogress uwtable
define linkonce_odr hidden noundef ptr @_ZNK9parameter7get_astEv(ptr noundef nonnull align 8 dereferenceable(16) %0) #4 comdat align 2 {
  %2 = alloca ptr, align 8
  store ptr %0, ptr %2, align 8, !tbaa !55
  %3 = load ptr, ptr %2, align 8
  %4 = getelementptr inbounds nuw %class.parameter, ptr %3, i32 0, i32 0
  %5 = call noundef nonnull align 8 dereferenceable(8) ptr @_ZSt3getIP3astJiS1_6symbolP7zstringP8rationaldjEERKT_RKSt7variantIJDpT0_EE(ptr noundef nonnull align 8 dereferenceable(9) %4)
  %6 = load ptr, ptr %5, align 8, !tbaa !69
  ret ptr %6
}

; Function Attrs: mustprogress uwtable
define linkonce_odr hidden noundef nonnull align 8 dereferenceable(16) ptr @_ZNK4decl13get_parameterEj(ptr noundef nonnull align 8 dereferenceable(32) %0, i32 noundef %1) #4 comdat align 2 {
  %3 = alloca ptr, align 8
  %4 = alloca i32, align 4
  store ptr %0, ptr %3, align 8, !tbaa !59
  store i32 %1, ptr %4, align 4, !tbaa !54
  %5 = load ptr, ptr %3, align 8
  %6 = getelementptr inbounds nuw %class.decl, ptr %5, i32 0, i32 2
  %7 = load ptr, ptr %6, align 8, !tbaa !61
  %8 = load i32, ptr %4, align 4, !tbaa !54
  %9 = call noundef nonnull align 8 dereferenceable(16) ptr @_ZNK9decl_info13get_parameterEj(ptr noundef nonnull align 8 dereferenceable(17) %7, i32 noundef %8)
  ret ptr %9
}

; Function Attrs: mustprogress uwtable
define linkonce_odr hidden noundef i32 @_ZNK4decl18get_num_parametersEv(ptr noundef nonnull align 8 dereferenceable(32) %0) #4 comdat align 2 {
  %2 = alloca ptr, align 8
  store ptr %0, ptr %2, align 8, !tbaa !59
  %3 = load ptr, ptr %2, align 8
  %4 = getelementptr inbounds nuw %class.decl, ptr %3, i32 0, i32 2
  %5 = load ptr, ptr %4, align 8, !tbaa !61
  %6 = icmp eq ptr %5, null
  br i1 %6, label %7, label %8

7:                                                ; preds = %1
  br label %12

8:                                                ; preds = %1
  %9 = getelementptr inbounds nuw %class.decl, ptr %3, i32 0, i32 2
  %10 = load ptr, ptr %9, align 8, !tbaa !61
  %11 = call noundef i32 @_ZNK9decl_info18get_num_parametersEv(ptr noundef nonnull align 8 dereferenceable(17) %10)
  br label %12

12:                                               ; preds = %8, %7
  %13 = phi i32 [ 0, %7 ], [ %11, %8 ]
  ret i32 %13
}

; Function Attrs: mustprogress uwtable
define hidden noundef ptr @_ZN23bvarray2uf_rewriter_cfg14get_value_sortEP4sort(ptr noundef nonnull align 8 dereferenceable(128) %0, ptr noundef %1) #4 align 2 {
  %3 = alloca ptr, align 8
  %4 = alloca ptr, align 8
  %5 = alloca ptr, align 8
  store ptr %0, ptr %3, align 8, !tbaa !3
  store ptr %1, ptr %4, align 8, !tbaa !52
  call void @llvm.lifetime.start.p0(i64 8, ptr %5) #3
  %6 = load ptr, ptr %4, align 8, !tbaa !52
  %7 = load ptr, ptr %4, align 8, !tbaa !52
  %8 = call noundef i32 @_ZNK4decl18get_num_parametersEv(ptr noundef nonnull align 8 dereferenceable(32) %7)
  %9 = sub i32 %8, 1
  %10 = call noundef nonnull align 8 dereferenceable(16) ptr @_ZNK4decl13get_parameterEj(ptr noundef nonnull align 8 dereferenceable(32) %6, i32 noundef %9)
  store ptr %10, ptr %5, align 8, !tbaa !55
  %11 = load ptr, ptr %5, align 8, !tbaa !55
  %12 = call noundef ptr @_ZNK9parameter7get_astEv(ptr noundef nonnull align 8 dereferenceable(16) %11)
  %13 = call noundef ptr @_Z7to_sortP3ast(ptr noundef %12)
  call void @llvm.lifetime.end.p0(i64 8, ptr %5) #3
  ret ptr %13
}

; Function Attrs: mustprogress uwtable
define hidden noundef ptr @_ZN23bvarray2uf_rewriter_cfg14get_value_sortEP4expr(ptr noundef nonnull align 8 dereferenceable(128) %0, ptr noundef %1) #4 align 2 {
  %3 = alloca ptr, align 8
  %4 = alloca ptr, align 8
  store ptr %0, ptr %3, align 8, !tbaa !3
  store ptr %1, ptr %4, align 8, !tbaa !50
  %5 = load ptr, ptr %3, align 8
  %6 = load ptr, ptr %4, align 8, !tbaa !50
  %7 = call noundef ptr @_ZNK4expr8get_sortEv(ptr noundef nonnull align 4 dereferenceable(16) %6)
  %8 = call noundef ptr @_ZN23bvarray2uf_rewriter_cfg14get_value_sortEP4sort(ptr noundef nonnull align 8 dereferenceable(128) %5, ptr noundef %7)
  ret ptr %8
}