; Function Attrs: mustprogress uwtable
define hidden noundef ptr @_ZN23bvarray2uf_rewriter_cfg14get_value_sortEP4expr(ptr noundef nonnull readnone align 8 captures(none) dereferenceable(128) %0, ptr noundef nonnull %1) local_unnamed_addr #3 align 2 {
  %3 = tail call noundef ptr @_ZNK4expr8get_sortEv(ptr noundef nonnull align 4 dereferenceable(16) %1)
  %4 = getelementptr inbounds nuw i8, ptr %3, i64 24
  %5 = load ptr, ptr %4, align 8, !tbaa !52
  %6 = icmp eq ptr %5, null
  br i1 %6, label %._ZNK4decl18get_num_parametersEv.exit_crit_edge.i, label %7

._ZNK4decl18get_num_parametersEv.exit_crit_edge.i: ; preds = %2
  %.pre.i = load ptr, ptr inttoptr (i64 8 to ptr), align 8, !tbaa !57
  br label %_ZNK4decl18get_num_parametersEv.exit.i

7:                                                ; preds = %2
  %8 = getelementptr inbounds nuw i8, ptr %5, i64 8
  %9 = load ptr, ptr %8, align 8, !tbaa !57
  %10 = icmp eq ptr %9, null
  br i1 %10, label %_ZNK4decl18get_num_parametersEv.exit.i, label %11

11:                                               ; preds = %7
  %12 = getelementptr inbounds i8, ptr %9, i64 -4
  %13 = load i32, ptr %12, align 4, !tbaa !40
  %14 = add i32 %13, -1
  %15 = zext i32 %14 to i64
  br label %_ZNK4decl18get_num_parametersEv.exit.i

_ZNK4decl18get_num_parametersEv.exit.i:           ; preds = %11, %7, %._ZNK4decl18get_num_parametersEv.exit_crit_edge.i
  %16 = phi ptr [ %.pre.i, %._ZNK4decl18get_num_parametersEv.exit_crit_edge.i ], [ %9, %11 ], [ null, %7 ]
  %17 = phi i64 [ 4294967295, %._ZNK4decl18get_num_parametersEv.exit_crit_edge.i ], [ %15, %11 ], [ 4294967295, %7 ]
  %18 = getelementptr inbounds nuw %class.parameter, ptr %16, i64 %17
  %19 = getelementptr inbounds nuw i8, ptr %18, i64 8
  %20 = load i8, ptr %19, align 8, !tbaa !60
  %.not.i.i.i.i = icmp eq i8 %20, 1
  br i1 %.not.i.i.i.i, label %_ZN23bvarray2uf_rewriter_cfg14get_value_sortEP4sort.exit, label %21

21:                                               ; preds = %_ZNK4decl18get_num_parametersEv.exit.i
  %22 = tail call ptr @__cxa_allocate_exception(i64 16) #20
  store ptr getelementptr inbounds nuw inrange(-16, 24) (i8, ptr @_ZTVSt18bad_variant_access, i64 16), ptr %22, align 8, !tbaa !65
  %23 = getelementptr inbounds nuw i8, ptr %22, i64 8
  store ptr @.str.9, ptr %23, align 8, !tbaa !67
  tail call void @__cxa_throw(ptr nonnull %22, ptr nonnull @_ZTISt18bad_variant_access, ptr nonnull @_ZNSt9exceptionD2Ev) #22
  unreachable

_ZN23bvarray2uf_rewriter_cfg14get_value_sortEP4sort.exit: ; preds = %_ZNK4decl18get_num_parametersEv.exit.i
  %24 = load ptr, ptr %18, align 8, !tbaa !62
  ret ptr %24
}